target datalayout = "e-m:e-p270:32:32-p271:32:32-p272:64:64-i64:64-i128:128-f80:128-n8:16:32:64-S128"
target triple = "x86_64-unknown-linux-gnu"

%struct.BdrvDirtyBitmap = type { ptr, ptr, i8, ptr, ptr, i64, i8, i32, i8, i8, i8, i8, %struct.anon }
%struct.anon = type { ptr, ptr }
%struct.BlockDriverState = type { i32, i8, i8, i8, i8, i8, ptr, ptr, ptr, %struct.anon.0, i8, [4096 x i8], [4096 x i8], [4096 x i8], [16 x i8], ptr, [4096 x i8], %struct.BlockLimits, i32, i32, i32, i32, [32 x i8], %union.anon, %union.anon.1, %union.anon.2, i32, [16 x %struct.anon.3], ptr, %struct.anon.4, ptr, ptr, %struct.anon.5, ptr, ptr, i32, ptr, i64, i64, %struct.QemuMutex, %struct.anon.6, %struct.Stat64, i32, i32, i32, i32, i32, i32, %struct.QemuMutex, %struct.anon.7, %struct.CoQueue, i8, i32, i8, %struct.CoMutex, ptr, ptr }
%struct.anon.0 = type { ptr }
%struct.BlockLimits = type { i32, i64, i32, i64, i32, i32, i32, i64, i32, i64, i64, i32, i8, i32, i32, i32, i32, i32, i32, i32 }
%union.anon = type { %struct.QTailQLink }
%struct.QTailQLink = type { ptr, ptr }
%union.anon.1 = type { %struct.QTailQLink }
%union.anon.2 = type { %struct.QTailQLink }
%struct.anon.3 = type { ptr }
%struct.anon.4 = type { ptr }
%struct.anon.5 = type { ptr }
%struct.anon.6 = type { ptr }
%struct.Stat64 = type { i64 }
%struct.QemuMutex = type { %union.pthread_mutex_t, i8 }
%union.pthread_mutex_t = type { %struct.__pthread_mutex_s }
%struct.__pthread_mutex_s = type { i32, i32, i32, i32, i32, i16, i16, %struct.__pthread_internal_list }
%struct.__pthread_internal_list = type { ptr, ptr }
%struct.anon.7 = type { ptr }
%struct.CoQueue = type { %struct.anon.8 }
%struct.anon.8 = type { ptr, ptr }
%struct.CoMutex = type { i32, ptr, %struct.anon.9, %struct.anon.9, i32, i32, ptr }
%struct.anon.9 = type { ptr }

@.str.1 = private unnamed_addr constant [29 x i8] c"../qemu/block/dirty-bitmap.c\00", align 1
@.str.21 = private unnamed_addr constant [36 x i8] c"!bdrv_dirty_bitmap_readonly(bitmap)\00", align 1
@__PRETTY_FUNCTION__.bdrv_clear_dirty_bitmap = private unnamed_addr constant [60 x i8] c"void bdrv_clear_dirty_bitmap(BdrvDirtyBitmap *, HBitmap **)\00", align 1
@__func__.bdrv_dirty_bitmaps_lock = private unnamed_addr constant [24 x i8] c"bdrv_dirty_bitmaps_lock\00", align 1
@qemu_mutex_lock_func = external global ptr, align 8

; Function Attrs: nounwind sspstrong uwtable
define internal void @bdrv_dirty_bitmaps_unlock(ptr noundef %bs) #0 {
entry:
  %bs.addr = alloca ptr, align 8
  store ptr %bs, ptr %bs.addr, align 8
  %0 = load ptr, ptr %bs.addr, align 8
  %dirty_bitmap_mutex = getelementptr inbounds %struct.BlockDriverState, ptr %0, i32 0, i32 39
  call void @qemu_mutex_unlock_impl(ptr noundef %dirty_bitmap_mutex, ptr noundef @.str.1, i32 noundef 71)
  ret void
}

; Function Attrs: nounwind sspstrong uwtable
define internal void @bdrv_dirty_bitmaps_lock(ptr noundef %bs) #0 {
entry:
  %bs.addr = alloca ptr, align 8
  %_f = alloca ptr, align 8
  %tmp = alloca ptr, align 8
  %atomic-temp = alloca ptr, align 8
  store ptr %bs, ptr %bs.addr, align 8
  br label %while.cond

while.cond:                                       ; preds = %do.end, %entry
  br i1 false, label %while.body, label %while.end

while.body:                                       ; preds = %while.cond
  br label %do.body

do.body:                                          ; preds = %while.body
  call void @g_assertion_message_expr(ptr noundef null, ptr noundef @.str.1, i32 noundef 66, ptr noundef @__func__.bdrv_dirty_bitmaps_lock, ptr noundef null) #10
  unreachable

do.end:                                           ; No predecessors!
  br label %while.cond

while.end:                                        ; preds = %while.cond
  %0 = load atomic i64, ptr @qemu_mutex_lock_func monotonic, align 8
  store i64 %0, ptr %atomic-temp, align 8
  %1 = load ptr, ptr %atomic-temp, align 8
  store ptr %1, ptr %tmp, align 8
  %2 = load ptr, ptr %tmp, align 8
  store ptr %2, ptr %_f, align 8
  %3 = load ptr, ptr %_f, align 8
  %4 = load ptr, ptr %bs.addr, align 8
  %dirty_bitmap_mutex = getelementptr inbounds %struct.BlockDriverState, ptr %4, i32 0, i32 39
  call void %3(ptr noundef %dirty_bitmap_mutex, ptr noundef @.str.1, i32 noundef 66)
  ret void
}

; Function Attrs: nounwind sspstrong uwtable
define dso_local zeroext i1 @bdrv_dirty_bitmap_readonly(ptr noundef %bitmap) #0 {
entry:
  %bitmap.addr = alloca ptr, align 8
  store ptr %bitmap, ptr %bitmap.addr, align 8
  %0 = load ptr, ptr %bitmap.addr, align 8
  %readonly = getelementptr inbounds %struct.BdrvDirtyBitmap, ptr %0, i32 0, i32 8
  %1 = load i8, ptr %readonly, align 8
  %tobool = trunc i8 %1 to i1
  ret i1 %tobool
}

; Function Attrs: nounwind sspstrong uwtable
define dso_local void @bdrv_clear_dirty_bitmap(ptr noundef %bitmap, ptr noundef %out) #0 {
entry:
  %bitmap.addr = alloca ptr, align 8
  %out.addr = alloca ptr, align 8
  %backup = alloca ptr, align 8
  store ptr %bitmap, ptr %bitmap.addr, align 8
  store ptr %out, ptr %out.addr, align 8
  br label %do.body

do.body:                                          ; preds = %entry
  br label %do.end

do.end:                                           ; preds = %do.body
  %0 = load ptr, ptr %bitmap.addr, align 8
  %call = call zeroext i1 @bdrv_dirty_bitmap_readonly(ptr noundef %0)
  br i1 %call, label %if.else, label %if.then

if.then:                                          ; preds = %do.end
  br label %if.end

if.else:                                          ; preds = %do.end
  call void @__assert_fail(ptr noundef @.str.21, ptr noundef @.str.1, i32 noundef 577, ptr noundef @__PRETTY_FUNCTION__.bdrv_clear_dirty_bitmap) #11
  unreachable

if.end:                                           ; preds = %if.then
  %1 = load ptr, ptr %bitmap.addr, align 8
  %bs = getelementptr inbounds %struct.BdrvDirtyBitmap, ptr %1, i32 0, i32 0
  %2 = load ptr, ptr %bs, align 8
  call void @bdrv_dirty_bitmaps_lock(ptr noundef %2)
  %3 = load ptr, ptr %out.addr, align 8
  %tobool = icmp ne ptr %3, null
  br i1 %tobool, label %if.else3, label %if.then1

if.then1:                                         ; preds = %if.end
  %4 = load ptr, ptr %bitmap.addr, align 8
  %bitmap2 = getelementptr inbounds %struct.BdrvDirtyBitmap, ptr %4, i32 0, i32 1
  %5 = load ptr, ptr %bitmap2, align 8
  call void @hbitmap_reset_all(ptr noundef %5)
  br label %if.end8

if.else3:                                         ; preds = %if.end
  %6 = load ptr, ptr %bitmap.addr, align 8
  %bitmap4 = getelementptr inbounds %struct.BdrvDirtyBitmap, ptr %6, i32 0, i32 1
  %7 = load ptr, ptr %bitmap4, align 8
  store ptr %7, ptr %backup, align 8
  %8 = load ptr, ptr %bitmap.addr, align 8
  %size = getelementptr inbounds %struct.BdrvDirtyBitmap, ptr %8, i32 0, i32 5
  %9 = load i64, ptr %size, align 8
  %10 = load ptr, ptr %backup, align 8
  %call5 = call i32 @hbitmap_granularity(ptr noundef %10)
  %call6 = call ptr @hbitmap_alloc(i64 noundef %9, i32 noundef %call5)
  %11 = load ptr, ptr %bitmap.addr, align 8
  %bitmap7 = getelementptr inbounds %struct.BdrvDirtyBitmap, ptr %11, i32 0, i32 1
  store ptr %call6, ptr %bitmap7, align 8
  %12 = load ptr, ptr %backup, align 8
  %13 = load ptr, ptr %out.addr, align 8
  store ptr %12, ptr %13, align 8
  br label %if.end8

if.end8:                                          ; preds = %if.else3, %if.then1
  %14 = load ptr, ptr %bitmap.addr, align 8
  %bs9 = getelementptr inbounds %struct.BdrvDirtyBitmap, ptr %14, i32 0, i32 0
  %15 = load ptr, ptr %bs9, align 8
  call void @bdrv_dirty_bitmaps_unlock(ptr noundef %15)
  ret void
}