; Function Attrs: nounwind sspstrong uwtable
define dso_local void @bdrv_clear_dirty_bitmap(ptr noundef captures(none) %bitmap, ptr noundef writeonly %out) local_unnamed_addr #0 {
entry:
  %readonly.i = getelementptr inbounds nuw i8, ptr %bitmap, i64 56
  %0 = load i8, ptr %readonly.i, align 8
  %tobool.i = trunc i8 %0 to i1
  br i1 %tobool.i, label %if.else, label %if.end

if.else:                                          ; preds = %entry
  tail call void @__assert_fail(ptr noundef nonnull @.str.21, ptr noundef nonnull @.str.1, i32 noundef 577, ptr noundef nonnull @__PRETTY_FUNCTION__.bdrv_clear_dirty_bitmap) #15
  unreachable

if.end:                                           ; preds = %entry
  %1 = load ptr, ptr %bitmap, align 8
  %2 = load atomic i64, ptr @qemu_mutex_lock_func monotonic, align 8
  %3 = inttoptr i64 %2 to ptr
  %dirty_bitmap_mutex.i = getelementptr inbounds nuw i8, ptr %1, i64 16904
  tail call void %3(ptr noundef nonnull %dirty_bitmap_mutex.i, ptr noundef nonnull @.str.1, i32 noundef 66) #14
  %tobool.not = icmp eq ptr %out, null
  %bitmap2 = getelementptr inbounds nuw i8, ptr %bitmap, i64 8
  %4 = load ptr, ptr %bitmap2, align 8
  br i1 %tobool.not, label %if.then1, label %if.else3

if.then1:                                         ; preds = %if.end
  tail call void @hbitmap_reset_all(ptr noundef %4) #14
  br label %if.end8

if.else3:                                         ; preds = %if.end
  %size = getelementptr inbounds nuw i8, ptr %bitmap, i64 40
  %5 = load i64, ptr %size, align 8
  %call5 = tail call i32 @hbitmap_granularity(ptr noundef %4) #14
  %call6 = tail call ptr @hbitmap_alloc(i64 noundef %5, i32 noundef %call5) #14
  store ptr %call6, ptr %bitmap2, align 8
  store ptr %4, ptr %out, align 8
  br label %if.end8

if.end8:                                          ; preds = %if.else3, %if.then1
  %6 = load ptr, ptr %bitmap, align 8
  %dirty_bitmap_mutex.i9 = getelementptr inbounds nuw i8, ptr %6, i64 16904
  tail call void @qemu_mutex_unlock_impl(ptr noundef nonnull %dirty_bitmap_mutex.i9, ptr noundef nonnull @.str.1, i32 noundef 71) #14
  ret void
}